; Function Attrs: nofree norecurse nosync nounwind memory(argmem: readwrite) uwtable
define range(i32 0, 2) i32 @Csw_CutMerge(ptr noundef readonly captures(none) %0, ptr noundef readonly captures(none) %1, ptr noundef readonly captures(none) %2, ptr noundef writeonly captures(none) %3) local_unnamed_addr #4 {
  %5 = getelementptr inbounds nuw i8, ptr %1, i64 23
  %6 = load i8, ptr %5, align 1, !tbaa !24
  %7 = getelementptr inbounds nuw i8, ptr %2, i64 23
  %8 = load i8, ptr %7, align 1, !tbaa !24
  %9 = icmp slt i8 %6, %8
  br i1 %9, label %10, label %12

10:                                               ; preds = %4
  %11 = tail call fastcc i32 @Csw_CutMergeOrdered(ptr noundef %0, ptr noundef nonnull %2, ptr noundef nonnull %1, ptr noundef %3)
  %.not13 = icmp eq i32 %11, 0
  br i1 %.not13, label %21, label %14

12:                                               ; preds = %4
  %13 = tail call fastcc i32 @Csw_CutMergeOrdered(ptr noundef %0, ptr noundef nonnull %1, ptr noundef nonnull %2, ptr noundef %3)
  %.not = icmp eq i32 %13, 0
  br i1 %.not, label %21, label %14

14:                                               ; preds = %12, %10
  %15 = getelementptr inbounds nuw i8, ptr %1, i64 12
  %16 = load i32, ptr %15, align 4, !tbaa !34
  %17 = getelementptr inbounds nuw i8, ptr %2, i64 12
  %18 = load i32, ptr %17, align 4, !tbaa !34
  %19 = or i32 %18, %16
  %20 = getelementptr inbounds nuw i8, ptr %3, i64 12
  store i32 %19, ptr %20, align 4, !tbaa !34
  br label %21

21:                                               ; preds = %12, %10, %14
  %.0 = phi i32 [ 1, %14 ], [ 0, %10 ], [ 0, %12 ]
  ret i32 %.0
}